/*
 * Intel ACPI Component Architecture
 * AML/ASL+ Disassembler version 20200925 (64-bit version)
 * Copyright (c) 2000 - 2020 Intel Corporation
 * 
 * Disassembly of fidt.aml, Wed May  5 11:10:30 2021
 *
 * ACPI Data Table [FIDT]
 *
 * Format: [HexOffset DecimalOffset ByteLength]  FieldName : FieldValue
 */

[000h 0000   4]                    Signature : "FIDT"    
[004h 0004   4]                 Table Length : 0000009C
[008h 0008   1]                     Revision : 01
[009h 0009   1]                     Checksum : 89
[00Ah 0010   6]                       Oem ID : "DELL  "
[010h 0016   8]                 Oem Table ID : "CBX3   "
[018h 0024   4]                 Oem Revision : 01072009
[01Ch 0028   4]              Asl Compiler ID : "AMI "
[020h 0032   4]        Asl Compiler Revision : 00010013


**** Unknown ACPI table signature [FIDT]


Raw Table Data: Length 156 (0x9C)

    0000: 46 49 44 54 9C 00 00 00 01 89 44 45 4C 4C 20 20  // FIDT......DELL  
    0010: 43 42 58 33 20 20 20 00 09 20 07 01 41 4D 49 20  // CBX3   .. ..AMI 
    0020: 13 00 01 00 24 46 49 44 04 78 00 31 41 55 4F 4B  // ....$FID.x.1AUOK
    0030: 30 33 38 00 B6 E0 BC 91 AA DF 04 79 0F 4F 9A 2E  // 038........y.O..
    0040: CC B1 B9 52 30 35 00 31 33 00 30 30 00 33 38 00  // ...R05.13.00.38.
    0050: E4 07 0B 18 0F 11 0F FF FF 44 45 4C 4C 20 20 43  // .........DELL  C
    0060: 42 58 33 20 20 20 00 31 00 00 00 FF FF FF FF FF  // BX3   .1........
    0070: FF FF FF FF FF FF FF FF FF FF FF FF FF FF FF FF  // ................
    0080: FF FF FF FF FF FF FF FF FF FF FF FF FF FF FF FF  // ................
    0090: FF FF FF FF FF FF FF FF FF FF FF FF              // ............
