/*
 * Intel ACPI Component Architecture
 * AML/ASL+ Disassembler version 20200925 (64-bit version)
 * Copyright (c) 2000 - 2020 Intel Corporation
 * 
 * Disassembly of nhlt.aml, Wed May  5 11:10:30 2021
 *
 * ACPI Data Table [NHLT]
 *
 * Format: [HexOffset DecimalOffset ByteLength]  FieldName : FieldValue
 */

[000h 0000   4]                    Signature : "NHLT"    
[004h 0004   4]                 Table Length : 0000002D
[008h 0008   1]                     Revision : 00
[009h 0009   1]                     Checksum : 66
[00Ah 0010   6]                       Oem ID : "DELL\x"
[010h 0016   8]                 Oem Table ID : "CBX3   "
[018h 0024   4]                 Oem Revision : 00000002
[01Ch 0028   4]              Asl Compiler ID : "    "
[020h 0032   4]        Asl Compiler Revision : 01000013


**** Unknown ACPI table signature [NHLT]


Raw Table Data: Length 45 (0x2D)

    0000: 4E 48 4C 54 2D 00 00 00 00 66 44 45 4C 4C 5C 78  // NHLT-....fDELL\x
    0010: 43 42 58 33 20 20 20 00 02 00 00 00 20 20 20 20  // CBX3   .....    
    0020: 13 00 00 01 00 04 00 00 00 DE AD BE EF           // .............
