/*
 * Intel ACPI Component Architecture
 * AML/ASL+ Disassembler version 20200925 (64-bit version)
 * Copyright (c) 2000 - 2020 Intel Corporation
 * 
 * Disassembly of rsdt.aml, Wed May  5 11:10:30 2021
 *
 * ACPI Data Table [RSDT]
 *
 * Format: [HexOffset DecimalOffset ByteLength]  FieldName : FieldValue
 */

[000h 0000   4]                    Signature : "RSDT"    [Root System Description Table]
[004h 0004   4]                 Table Length : 000000A0
[008h 0008   1]                     Revision : 01
[009h 0009   1]                     Checksum : AD
[00Ah 0010   6]                       Oem ID : "DELL  "
[010h 0016   8]                 Oem Table ID : "CBX3   "
[018h 0024   4]                 Oem Revision : 01072009
[01Ch 0028   4]              Asl Compiler ID : "MSFT"
[020h 0032   4]        Asl Compiler Revision : 00010013

[024h 0036   4]       ACPI Table Address   0 : 6DF8C560
[028h 0040   4]       ACPI Table Address   1 : 6DF8C678
[02Ch 0044   4]       ACPI Table Address   2 : 6DF8C738
[030h 0048   4]       ACPI Table Address   3 : 6DF8C780
[034h 0052   4]       ACPI Table Address   4 : 6DF8C820
[038h 0056   4]       ACPI Table Address   5 : 6DF8C860
[03Ch 0060   4]       ACPI Table Address   6 : 6DF8E380
[040h 0064   4]       ACPI Table Address   7 : 6DF8E3A8
[044h 0068   4]       ACPI Table Address   8 : 6DF91570
[048h 0072   4]       ACPI Table Address   9 : 6DF915A8
[04Ch 0076   4]       ACPI Table Address  10 : 6DF957E0
[050h 0080   4]       ACPI Table Address  11 : 6DF95810
[054h 0084   4]       ACPI Table Address  12 : 6DF95858
[058h 0088   4]       ACPI Table Address  13 : 6DF958F0
[05Ch 0092   4]       ACPI Table Address  14 : 6DF96520
[060h 0096   4]       ACPI Table Address  15 : 6DF97A08
[064h 0100   4]       ACPI Table Address  16 : 6DF97A40
[068h 0104   4]       ACPI Table Address  17 : 6DF97A98
[06Ch 0108   4]       ACPI Table Address  18 : 6DF98278
[070h 0112   4]       ACPI Table Address  19 : 6DF9D148
[074h 0116   4]       ACPI Table Address  20 : 6DF9D1A0
[078h 0120   4]       ACPI Table Address  21 : 6DF9D318
[07Ch 0124   4]       ACPI Table Address  22 : 6DF9D3C0
[080h 0128   4]       ACPI Table Address  23 : 6DF9D508
[084h 0132   4]       ACPI Table Address  24 : 6DF9DAC0
[088h 0136   4]       ACPI Table Address  25 : 6DF9DAF8
[08Ch 0140   4]       ACPI Table Address  26 : 6E395000
[090h 0144   4]       ACPI Table Address  27 : 6E394000
[094h 0148   4]       ACPI Table Address  28 : 6E393000
[098h 0152   4]       ACPI Table Address  29 : 6E392000
[09Ch 0156   4]       ACPI Table Address  30 : 6E391000

Raw Table Data: Length 160 (0xA0)

    0000: 52 53 44 54 A0 00 00 00 01 AD 44 45 4C 4C 20 20  // RSDT......DELL  
    0010: 43 42 58 33 20 20 20 00 09 20 07 01 4D 53 46 54  // CBX3   .. ..MSFT
    0020: 13 00 01 00 60 C5 F8 6D 78 C6 F8 6D 38 C7 F8 6D  // ....`..mx..m8..m
    0030: 80 C7 F8 6D 20 C8 F8 6D 60 C8 F8 6D 80 E3 F8 6D  // ...m ..m`..m...m
    0040: A8 E3 F8 6D 70 15 F9 6D A8 15 F9 6D E0 57 F9 6D  // ...mp..m...m.W.m
    0050: 10 58 F9 6D 58 58 F9 6D F0 58 F9 6D 20 65 F9 6D  // .X.mXX.m.X.m e.m
    0060: 08 7A F9 6D 40 7A F9 6D 98 7A F9 6D 78 82 F9 6D  // .z.m@z.m.z.mx..m
    0070: 48 D1 F9 6D A0 D1 F9 6D 18 D3 F9 6D C0 D3 F9 6D  // H..m...m...m...m
    0080: 08 D5 F9 6D C0 DA F9 6D F8 DA F9 6D 00 50 39 6E  // ...m...m...m.P9n
    0090: 00 40 39 6E 00 30 39 6E 00 20 39 6E 00 10 39 6E  // .@9n.09n. 9n..9n
