/*
 * Intel ACPI Component Architecture
 * AML/ASL+ Disassembler version 20200925 (64-bit version)
 * Copyright (c) 2000 - 2020 Intel Corporation
 * 
 * Disassembly of uefi.aml, Wed May  5 11:10:30 2021
 *
 * ACPI Data Table [UEFI]
 *
 * Format: [HexOffset DecimalOffset ByteLength]  FieldName : FieldValue
 */

[000h 0000   4]                    Signature : "UEFI"    [UEFI Boot Optimization Table]
[004h 0004   4]                 Table Length : 00000042
[008h 0008   1]                     Revision : 01
[009h 0009   1]                     Checksum : D6
[00Ah 0010   6]                       Oem ID : "DELL\x"
[010h 0016   8]                 Oem Table ID : "CBX3   "
[018h 0024   4]                 Oem Revision : 00000002
[01Ch 0028   4]              Asl Compiler ID : "    "
[020h 0032   4]        Asl Compiler Revision : 01000013

[024h 0036  16]              UUID Identifier : C68ED8E2-9DC6-4CBD-9D94-DB65ACC5C332
[034h 0052   2]                  Data Offset : 0036

Raw Table Data: Length 66 (0x42)

    0000: 55 45 46 49 42 00 00 00 01 D6 44 45 4C 4C 5C 78  // UEFIB.....DELL\x
    0010: 43 42 58 33 20 20 20 00 02 00 00 00 20 20 20 20  // CBX3   .....    
    0020: 13 00 00 01 E2 D8 8E C6 C6 9D BD 4C 9D 94 DB 65  // ...........L...e
    0030: AC C5 C3 32 36 00 01 00 00 00 00 90 3D 6E 00 00  // ...26.......=n..
    0040: 00 00                                            // ..
